target datalayout = "e-m:e-p270:32:32-p271:32:32-p272:64:64-i64:64-i128:128-f80:128-n8:16:32:64-S128"
target triple = "x86_64-unknown-linux-gnu"

%"class.absl::lts_20230802::FunctionRef" = type { %"union.absl::lts_20230802::functional_internal::VoidPtr", ptr }
%"union.absl::lts_20230802::functional_internal::VoidPtr" = type { ptr }
%"class.absl::lts_20230802::FunctionRef.136" = type { %"union.absl::lts_20230802::functional_internal::VoidPtr", ptr }
%class.anon = type { ptr, ptr, ptr }

; Function Attrs: mustprogress nounwind uwtable
define internal void @"_ZN4absl12lts_2023080219functional_internal13AssertNonNullIZN9grpc_core12EndpointList4InitEPNS3_25EndpointAddressesIteratorERKNS3_11ChannelArgsENS0_11FunctionRefIFSt10unique_ptrINS4_8EndpointENS3_16OrphanableDeleteEENS3_13RefCountedPtrIS4_EERKNS3_17EndpointAddressesES9_EEEE3$_0EEvRKT_"(ptr noundef nonnull align 8 dereferenceable(24) %0) #5 {
entry:
  %.addr = alloca ptr, align 8
  store ptr %0, ptr %.addr, align 8
  ret void
}

; Function Attrs: mustprogress uwtable
define internal void @"_ZN4absl12lts_2023080211FunctionRefIFvRKN9grpc_core17EndpointAddressesEEEC2IZNS2_12EndpointList4InitEPNS2_25EndpointAddressesIteratorERKNS2_11ChannelArgsENS1_IFSt10unique_ptrINS9_8EndpointENS2_16OrphanableDeleteEENS2_13RefCountedPtrIS9_EES5_SE_EEEE3$_0vEERKT_"(ptr noundef nonnull align 8 dereferenceable(16) %this, ptr noundef nonnull align 8 dereferenceable(24) %f) unnamed_addr #4 align 2 {
entry:
  %this.addr = alloca ptr, align 8
  %f.addr = alloca ptr, align 8
  store ptr %this, ptr %this.addr, align 8
  store ptr %f, ptr %f.addr, align 8
  %this1 = load ptr, ptr %this.addr, align 8
  %invoker_ = getelementptr inbounds %"class.absl::lts_20230802::FunctionRef.136", ptr %this1, i32 0, i32 1
  store ptr @"_ZN4absl12lts_2023080219functional_internal12InvokeObjectIZN9grpc_core12EndpointList4InitEPNS3_25EndpointAddressesIteratorERKNS3_11ChannelArgsENS0_11FunctionRefIFSt10unique_ptrINS4_8EndpointENS3_16OrphanableDeleteEENS3_13RefCountedPtrIS4_EERKNS3_17EndpointAddressesES9_EEEE3$_0vJSJ_EEET0_NS1_7VoidPtrEDpNS1_8ForwardTIT1_E4typeE", ptr %invoker_, align 8
  %0 = load ptr, ptr %f.addr, align 8
  call void @"_ZN4absl12lts_2023080219functional_internal13AssertNonNullIZN9grpc_core12EndpointList4InitEPNS3_25EndpointAddressesIteratorERKNS3_11ChannelArgsENS0_11FunctionRefIFSt10unique_ptrINS4_8EndpointENS3_16OrphanableDeleteEENS3_13RefCountedPtrIS4_EERKNS3_17EndpointAddressesES9_EEEE3$_0EEvRKT_"(ptr noundef nonnull align 8 dereferenceable(24) %0)
  %1 = load ptr, ptr %f.addr, align 8
  %ptr_2 = getelementptr inbounds %"class.absl::lts_20230802::FunctionRef.136", ptr %this1, i32 0, i32 0
  store ptr %1, ptr %ptr_2, align 8
  ret void
}

; Function Attrs: mustprogress uwtable
define void @_ZN9grpc_core12EndpointList4InitEPNS_25EndpointAddressesIteratorERKNS_11ChannelArgsEN4absl12lts_2023080211FunctionRefIFSt10unique_ptrINS0_8EndpointENS_16OrphanableDeleteEENS_13RefCountedPtrIS0_EERKNS_17EndpointAddressesES5_EEE(ptr noundef nonnull align 8 dereferenceable(56) %this, ptr noundef %endpoints, ptr noundef nonnull align 8 dereferenceable(8) %args, ptr %create_endpoint.coerce0, ptr %create_endpoint.coerce1) #4 align 2 {
entry:
  %create_endpoint = alloca %"class.absl::lts_20230802::FunctionRef", align 8
  %this.addr = alloca ptr, align 8
  %endpoints.addr = alloca ptr, align 8
  %args.addr = alloca ptr, align 8
  %agg.tmp = alloca %"class.absl::lts_20230802::FunctionRef.136", align 8
  %ref.tmp = alloca %class.anon, align 8
  %0 = getelementptr inbounds { ptr, ptr }, ptr %create_endpoint, i32 0, i32 0
  store ptr %create_endpoint.coerce0, ptr %0, align 8
  %1 = getelementptr inbounds { ptr, ptr }, ptr %create_endpoint, i32 0, i32 1
  store ptr %create_endpoint.coerce1, ptr %1, align 8
  store ptr %this, ptr %this.addr, align 8
  store ptr %endpoints, ptr %endpoints.addr, align 8
  store ptr %args, ptr %args.addr, align 8
  %this1 = load ptr, ptr %this.addr, align 8
  %2 = load ptr, ptr %endpoints.addr, align 8
  %cmp = icmp eq ptr %2, null
  br i1 %cmp, label %if.then, label %if.end

if.then:                                          ; preds = %entry
  br label %return

if.end:                                           ; preds = %entry
  %3 = load ptr, ptr %endpoints.addr, align 8
  %4 = getelementptr inbounds %class.anon, ptr %ref.tmp, i32 0, i32 0
  store ptr %this1, ptr %4, align 8
  %5 = getelementptr inbounds %class.anon, ptr %ref.tmp, i32 0, i32 1
  store ptr %create_endpoint, ptr %5, align 8
  %6 = getelementptr inbounds %class.anon, ptr %ref.tmp, i32 0, i32 2
  %7 = load ptr, ptr %args.addr, align 8
  store ptr %7, ptr %6, align 8
  call void @"_ZN4absl12lts_2023080211FunctionRefIFvRKN9grpc_core17EndpointAddressesEEEC2IZNS2_12EndpointList4InitEPNS2_25EndpointAddressesIteratorERKNS2_11ChannelArgsENS1_IFSt10unique_ptrINS9_8EndpointENS2_16OrphanableDeleteEENS2_13RefCountedPtrIS9_EES5_SE_EEEE3$_0vEERKT_"(ptr noundef nonnull align 8 dereferenceable(16) %agg.tmp, ptr noundef nonnull align 8 dereferenceable(24) %ref.tmp)
  %8 = getelementptr inbounds { ptr, ptr }, ptr %agg.tmp, i32 0, i32 0
  %9 = load ptr, ptr %8, align 8
  %10 = getelementptr inbounds { ptr, ptr }, ptr %agg.tmp, i32 0, i32 1
  %11 = load ptr, ptr %10, align 8
  %vtable = load ptr, ptr %3, align 8
  %vfn = getelementptr inbounds ptr, ptr %vtable, i64 2
  %12 = load ptr, ptr %vfn, align 8
  call void %12(ptr noundef nonnull align 8 dereferenceable(8) %3, ptr %9, ptr %11)
  br label %return

return:                                           ; preds = %if.end, %if.then
  ret void
}