; Function Attrs: mustprogress uwtable
define void @_ZN9grpc_core12EndpointList4InitEPNS_25EndpointAddressesIteratorERKNS_11ChannelArgsEN4absl12lts_2023080211FunctionRefIFSt10unique_ptrINS0_8EndpointENS_16OrphanableDeleteEENS_13RefCountedPtrIS0_EERKNS_17EndpointAddressesES5_EEE(ptr noundef nonnull align 8 dereferenceable(56) %this, ptr noundef %endpoints, ptr noundef nonnull align 8 dereferenceable(8) %args, ptr %create_endpoint.coerce0, ptr %create_endpoint.coerce1) local_unnamed_addr #3 align 2 {
entry:
  %create_endpoint = alloca %"class.absl::lts_20230802::FunctionRef", align 8
  %ref.tmp = alloca %class.anon, align 8
  store ptr %create_endpoint.coerce0, ptr %create_endpoint, align 8
  %0 = getelementptr inbounds i8, ptr %create_endpoint, i64 8
  store ptr %create_endpoint.coerce1, ptr %0, align 8
  %cmp = icmp eq ptr %endpoints, null
  br i1 %cmp, label %return, label %if.end

if.end:                                           ; preds = %entry
  store ptr %this, ptr %ref.tmp, align 8
  %1 = getelementptr inbounds i8, ptr %ref.tmp, i64 8
  store ptr %create_endpoint, ptr %1, align 8
  %2 = getelementptr inbounds i8, ptr %ref.tmp, i64 16
  store ptr %args, ptr %2, align 8
  %vtable = load ptr, ptr %endpoints, align 8
  %vfn = getelementptr inbounds i8, ptr %vtable, i64 16
  %3 = load ptr, ptr %vfn, align 8
  call void %3(ptr noundef nonnull align 8 dereferenceable(8) %endpoints, ptr nonnull %ref.tmp, ptr nonnull @"_ZN4absl12lts_2023080219functional_internal12InvokeObjectIZN9grpc_core12EndpointList4InitEPNS3_25EndpointAddressesIteratorERKNS3_11ChannelArgsENS0_11FunctionRefIFSt10unique_ptrINS4_8EndpointENS3_16OrphanableDeleteEENS3_13RefCountedPtrIS4_EERKNS3_17EndpointAddressesES9_EEEE3$_0vJSJ_EEET0_NS1_7VoidPtrEDpNS1_8ForwardTIT1_E4typeE")
  br label %return

return:                                           ; preds = %entry, %if.end
  ret void
}